; Function Attrs: mustprogress nofree norecurse nosync nounwind willreturn memory(argmem: read) uwtable
define hidden noundef zeroext i1 @_ZNK17JfrStorageControl14should_discardEv(ptr nocapture noundef nonnull readonly align 8 dereferenceable(49) %0) local_unnamed_addr #1 align 2 {
  %2 = getelementptr inbounds i8, ptr %0, i64 48
  %3 = load i8, ptr %2, align 8
  %4 = trunc i8 %3 to i1
  %5 = getelementptr inbounds i8, ptr %0, i64 8
  %6 = load i64, ptr %5, align 8
  %7 = getelementptr inbounds i8, ptr %0, i64 32
  %8 = load i64, ptr %7, align 8
  %9 = icmp uge i64 %6, %8
  %not. = xor i1 %4, true
  %10 = select i1 %not., i1 %9, i1 false
  ret i1 %10
}